#include <math.h>
#include <stdio.h>
#include <stdlib.h>
#include <string.h>

int main(int argc, char* argv[])
{
	char a[5], t[5];
	int n, i;
	scanf("%s", a);
	n=strlen(a);
    for(i=0;i<n;i++){
	   t[n-i-1]=a[i];
	}
	t[n]='\0';
	printf("%s\n", t);
	return 0;
}